target datalayout = "e-m:e-p270:32:32-p271:32:32-p272:64:64-i64:64-i128:128-f80:128-n8:16:32:64-S128"
target triple = "x86_64-pc-linux-gnu"

%"class.std::__cxx11::basic_string" = type { %"struct.std::__cxx11::basic_string<char>::_Alloc_hider", i64, %union.anon }
%"struct.std::__cxx11::basic_string<char>::_Alloc_hider" = type { ptr }
%union.anon = type { i64, [8 x i8] }
%"class.std::allocator" = type { i8 }
%"struct.open_spiel::dou_dizhu::ChainOnlyHandParams" = type { i32, i32, i32 }

@.str.4 = private unnamed_addr constant [144 x i8] c"generated/home/dtcxzyw/WorkSpace/Projects/compilers/llvm-opt-benchmark/bench/openspiel/open_spiel/open_spiel/games/dou_dizhu/dou_dizhu_utils.cc\00", align 1
@.str.5 = private unnamed_addr constant [2 x i8] c":\00", align 1
@.str.6 = private unnamed_addr constant [2 x i8] c" \00", align 1
@.str.9 = private unnamed_addr constant [4 x i8] c" = \00", align 1
@.str.17 = private unnamed_addr constant [22 x i8] c"action >= action_base\00", align 1
@.str.18 = private unnamed_addr constant [8 x i8] c"\0Aaction\00", align 1
@.str.19 = private unnamed_addr constant [17 x i8] c", action_base = \00", align 1
@.str.27 = private unnamed_addr constant [55 x i8] c"The number of cards of the same rank is wrong (chain).\00", align 1

; Function Attrs: mustprogress nounwind uwtable
define linkonce_odr void @_ZN10open_spiel9dou_dizhu19ChainOnlyHandParamsC2Eiii(ptr noundef nonnull align 4 dereferenceable(12) %0, i32 noundef %1, i32 noundef %2, i32 noundef %3) unnamed_addr #4 comdat align 2 {
  %5 = alloca ptr, align 8
  %6 = alloca i32, align 4
  %7 = alloca i32, align 4
  %8 = alloca i32, align 4
  store ptr %0, ptr %5, align 8
  store i32 %1, ptr %6, align 4
  store i32 %2, ptr %7, align 4
  store i32 %3, ptr %8, align 4
  %9 = load ptr, ptr %5, align 8
  %10 = getelementptr inbounds nuw %"struct.open_spiel::dou_dizhu::ChainOnlyHandParams", ptr %9, i32 0, i32 0
  %11 = load i32, ptr %6, align 4
  store i32 %11, ptr %10, align 4
  %12 = getelementptr inbounds nuw %"struct.open_spiel::dou_dizhu::ChainOnlyHandParams", ptr %9, i32 0, i32 1
  %13 = load i32, ptr %7, align 4
  store i32 %13, ptr %12, align 4
  %14 = getelementptr inbounds nuw %"struct.open_spiel::dou_dizhu::ChainOnlyHandParams", ptr %9, i32 0, i32 2
  %15 = load i32, ptr %8, align 4
  store i32 %15, ptr %14, align 4
  ret void
}

; Function Attrs: mustprogress uwtable
define noundef i32 @_ZN10open_spiel9dou_dizhu21GetChainOnlyMinLengthEi(i32 noundef %0) #5 personality ptr @__gxx_personality_v0 {
  %2 = alloca i32, align 4
  %3 = alloca i32, align 4
  %4 = alloca %"class.std::__cxx11::basic_string", align 8
  %5 = alloca %"class.std::allocator", align 1
  %6 = alloca ptr, align 8
  %7 = alloca i32, align 4
  store i32 %0, ptr %2, align 4
  %8 = load i32, ptr %2, align 4
  switch i32 %8, label %12 [
    i32 1, label %9
    i32 2, label %10
    i32 3, label %11
  ]

9:                                                ; preds = %1
  store i32 5, ptr %3, align 4
  br label %24

10:                                               ; preds = %1
  store i32 3, ptr %3, align 4
  br label %24

11:                                               ; preds = %1
  store i32 2, ptr %3, align 4
  br label %24

12:                                               ; preds = %1
  call void @_ZNSaIcEC1Ev(ptr noundef nonnull align 1 dereferenceable(1) %5) #3
  invoke void @_ZNSt7__cxx1112basic_stringIcSt11char_traitsIcESaIcEEC2IS3_EEPKcRKS3_(ptr noundef nonnull align 8 dereferenceable(32) %4, ptr noundef @.str.27, ptr noundef nonnull align 1 dereferenceable(1) %5)
          to label %13 unwind label %15

13:                                               ; preds = %12
  invoke void @_ZN10open_spiel15SpielFatalErrorERKNSt7__cxx1112basic_stringIcSt11char_traitsIcESaIcEEE(ptr noundef nonnull align 8 dereferenceable(32) %4) #14
          to label %14 unwind label %19

14:                                               ; preds = %13
  unreachable

15:                                               ; preds = %12
  %16 = landingpad { ptr, i32 }
          cleanup
  %17 = extractvalue { ptr, i32 } %16, 0
  store ptr %17, ptr %6, align 8
  %18 = extractvalue { ptr, i32 } %16, 1
  store i32 %18, ptr %7, align 4
  br label %23

19:                                               ; preds = %13
  %20 = landingpad { ptr, i32 }
          cleanup
  %21 = extractvalue { ptr, i32 } %20, 0
  store ptr %21, ptr %6, align 8
  %22 = extractvalue { ptr, i32 } %20, 1
  store i32 %22, ptr %7, align 4
  call void @_ZNSt7__cxx1112basic_stringIcSt11char_traitsIcESaIcEED1Ev(ptr noundef nonnull align 8 dereferenceable(32) %4) #3
  br label %23

23:                                               ; preds = %19, %15
  call void @_ZNSaIcED1Ev(ptr noundef nonnull align 1 dereferenceable(1) %5) #3
  br label %26

24:                                               ; preds = %11, %10, %9
  %25 = load i32, ptr %3, align 4
  ret i32 %25

26:                                               ; preds = %23
  %27 = load ptr, ptr %6, align 8
  %28 = load i32, ptr %7, align 4
  %29 = insertvalue { ptr, i32 } poison, ptr %27, 0
  %30 = insertvalue { ptr, i32 } %29, i32 %28, 1
  resume { ptr, i32 } %30
}

; Function Attrs: mustprogress uwtable
define noundef i32 @_ZN10open_spiel9dou_dizhu22GetChainOnlyActionBaseEi(i32 noundef %0) #5 personality ptr @__gxx_personality_v0 {
  %2 = alloca i32, align 4
  %3 = alloca i32, align 4
  %4 = alloca %"class.std::__cxx11::basic_string", align 8
  %5 = alloca %"class.std::allocator", align 1
  %6 = alloca ptr, align 8
  %7 = alloca i32, align 4
  store i32 %0, ptr %2, align 4
  %8 = load i32, ptr %2, align 4
  switch i32 %8, label %12 [
    i32 1, label %9
    i32 2, label %10
    i32 3, label %11
  ]

9:                                                ; preds = %1
  store i32 19, ptr %3, align 4
  br label %24

10:                                               ; preds = %1
  store i32 68, ptr %3, align 4
  br label %24

11:                                               ; preds = %1
  store i32 471, ptr %3, align 4
  br label %24

12:                                               ; preds = %1
  call void @_ZNSaIcEC1Ev(ptr noundef nonnull align 1 dereferenceable(1) %5) #3
  invoke void @_ZNSt7__cxx1112basic_stringIcSt11char_traitsIcESaIcEEC2IS3_EEPKcRKS3_(ptr noundef nonnull align 8 dereferenceable(32) %4, ptr noundef @.str.27, ptr noundef nonnull align 1 dereferenceable(1) %5)
          to label %13 unwind label %15

13:                                               ; preds = %12
  invoke void @_ZN10open_spiel15SpielFatalErrorERKNSt7__cxx1112basic_stringIcSt11char_traitsIcESaIcEEE(ptr noundef nonnull align 8 dereferenceable(32) %4) #14
          to label %14 unwind label %19

14:                                               ; preds = %13
  unreachable

15:                                               ; preds = %12
  %16 = landingpad { ptr, i32 }
          cleanup
  %17 = extractvalue { ptr, i32 } %16, 0
  store ptr %17, ptr %6, align 8
  %18 = extractvalue { ptr, i32 } %16, 1
  store i32 %18, ptr %7, align 4
  br label %23

19:                                               ; preds = %13
  %20 = landingpad { ptr, i32 }
          cleanup
  %21 = extractvalue { ptr, i32 } %20, 0
  store ptr %21, ptr %6, align 8
  %22 = extractvalue { ptr, i32 } %20, 1
  store i32 %22, ptr %7, align 4
  call void @_ZNSt7__cxx1112basic_stringIcSt11char_traitsIcESaIcEED1Ev(ptr noundef nonnull align 8 dereferenceable(32) %4) #3
  br label %23

23:                                               ; preds = %19, %15
  call void @_ZNSaIcED1Ev(ptr noundef nonnull align 1 dereferenceable(1) %5) #3
  br label %26

24:                                               ; preds = %11, %10, %9
  %25 = load i32, ptr %3, align 4
  ret i32 %25

26:                                               ; preds = %23
  %27 = load ptr, ptr %6, align 8
  %28 = load i32, ptr %7, align 4
  %29 = insertvalue { ptr, i32 } poison, ptr %27, 0
  %30 = insertvalue { ptr, i32 } %29, i32 %28, 1
  resume { ptr, i32 } %30
}

; Function Attrs: mustprogress uwtable
define { i64, i32 } @_ZN10open_spiel9dou_dizhu22GetChainOnlyHandParamsEi(i32 noundef %0) #5 personality ptr @__gxx_personality_v0 {
  %2 = alloca %"struct.open_spiel::dou_dizhu::ChainOnlyHandParams", align 4
  %3 = alloca i32, align 4
  %4 = alloca i32, align 4
  %5 = alloca i32, align 4
  %6 = alloca i32, align 4
  %7 = alloca i32, align 4
  %8 = alloca i32, align 4
  %9 = alloca %"class.std::__cxx11::basic_string", align 8
  %10 = alloca i32, align 4
  %11 = alloca ptr, align 8
  %12 = alloca i32, align 4
  %13 = alloca i32, align 4
  %14 = alloca i32, align 4
  %15 = alloca i32, align 4
  %16 = alloca i32, align 4
  %17 = alloca i32, align 4
  %18 = alloca { i64, i32 }, align 8
  store i32 %0, ptr %3, align 4
  %19 = load i32, ptr %3, align 4
  %20 = call noundef i32 @_ZN10open_spiel9dou_dizhu18GetNumCardsPerRankEi(i32 noundef %19)
  store i32 %20, ptr %4, align 4
  %21 = load i32, ptr %4, align 4
  %22 = call noundef i32 @_ZN10open_spiel9dou_dizhu22GetChainOnlyActionBaseEi(i32 noundef %21)
  store i32 %22, ptr %5, align 4
  %23 = load i32, ptr %4, align 4
  %24 = call noundef i32 @_ZN10open_spiel9dou_dizhu21GetChainOnlyMinLengthEi(i32 noundef %23)
  store i32 %24, ptr %6, align 4
  br label %25

25:                                               ; preds = %1
  %26 = load i32, ptr %3, align 4
  store i32 %26, ptr %7, align 4
  %27 = load i32, ptr %5, align 4
  store i32 %27, ptr %8, align 4
  %28 = load i32, ptr %7, align 4
  %29 = load i32, ptr %8, align 4
  %30 = icmp sge i32 %28, %29
  br i1 %30, label %37, label %31

31:                                               ; preds = %25
  store i32 240, ptr %10, align 4
  call void @_ZN10open_spiel8internal11SpielStrCatIJRA144_KcRA2_S2_iS6_RA22_S2_RA8_S2_RA4_S2_RiRA17_S2_SD_EEENSt7__cxx1112basic_stringIcSt11char_traitsIcESaIcEEEDpOT_(ptr dead_on_unwind writable sret(%"class.std::__cxx11::basic_string") align 8 %9, ptr noundef nonnull align 1 dereferenceable(144) @.str.4, ptr noundef nonnull align 1 dereferenceable(2) @.str.5, ptr noundef nonnull align 4 dereferenceable(4) %10, ptr noundef nonnull align 1 dereferenceable(2) @.str.6, ptr noundef nonnull align 1 dereferenceable(22) @.str.17, ptr noundef nonnull align 1 dereferenceable(8) @.str.18, ptr noundef nonnull align 1 dereferenceable(4) @.str.9, ptr noundef nonnull align 4 dereferenceable(4) %7, ptr noundef nonnull align 1 dereferenceable(17) @.str.19, ptr noundef nonnull align 4 dereferenceable(4) %8)
  invoke void @_ZN10open_spiel15SpielFatalErrorERKNSt7__cxx1112basic_stringIcSt11char_traitsIcESaIcEEE(ptr noundef nonnull align 8 dereferenceable(32) %9) #14
          to label %32 unwind label %33

32:                                               ; preds = %31
  unreachable

33:                                               ; preds = %31
  %34 = landingpad { ptr, i32 }
          cleanup
  %35 = extractvalue { ptr, i32 } %34, 0
  store ptr %35, ptr %11, align 8
  %36 = extractvalue { ptr, i32 } %34, 1
  store i32 %36, ptr %12, align 4
  call void @_ZNSt7__cxx1112basic_stringIcSt11char_traitsIcESaIcEED1Ev(ptr noundef nonnull align 8 dereferenceable(32) %9) #3
  br label %76

37:                                               ; preds = %25
  br label %38

38:                                               ; preds = %37
  %39 = load i32, ptr %3, align 4
  %40 = load i32, ptr %5, align 4
  %41 = sub nsw i32 %39, %40
  store i32 %41, ptr %13, align 4
  %42 = load i32, ptr %6, align 4
  store i32 %42, ptr %14, align 4
  store i32 0, ptr %15, align 4
  %43 = load i32, ptr %6, align 4
  store i32 %43, ptr %14, align 4
  br label %44

44:                                               ; preds = %65, %38
  %45 = load i32, ptr %14, align 4
  %46 = icmp sle i32 %45, 15
  br i1 %46, label %47, label %68

47:                                               ; preds = %44
  %48 = load i32, ptr %14, align 4
  %49 = sub nsw i32 15, %48
  %50 = sub nsw i32 %49, 2
  store i32 %50, ptr %16, align 4
  %51 = load i32, ptr %15, align 4
  %52 = load i32, ptr %13, align 4
  %53 = icmp sle i32 %51, %52
  br i1 %53, label %54, label %61

54:                                               ; preds = %47
  %55 = load i32, ptr %13, align 4
  %56 = load i32, ptr %15, align 4
  %57 = load i32, ptr %16, align 4
  %58 = add nsw i32 %56, %57
  %59 = icmp slt i32 %55, %58
  br i1 %59, label %60, label %61

60:                                               ; preds = %54
  br label %68

61:                                               ; preds = %54, %47
  %62 = load i32, ptr %16, align 4
  %63 = load i32, ptr %15, align 4
  %64 = add nsw i32 %63, %62
  store i32 %64, ptr %15, align 4
  br label %65

65:                                               ; preds = %61
  %66 = load i32, ptr %14, align 4
  %67 = add nsw i32 %66, 1
  store i32 %67, ptr %14, align 4
  br label %44, !llvm.loop !15

68:                                               ; preds = %60, %44
  %69 = load i32, ptr %13, align 4
  %70 = load i32, ptr %15, align 4
  %71 = sub nsw i32 %69, %70
  store i32 %71, ptr %17, align 4
  %72 = load i32, ptr %17, align 4
  %73 = load i32, ptr %4, align 4
  %74 = load i32, ptr %14, align 4
  call void @_ZN10open_spiel9dou_dizhu19ChainOnlyHandParamsC2Eiii(ptr noundef nonnull align 4 dereferenceable(12) %2, i32 noundef %72, i32 noundef %73, i32 noundef %74)
  call void @llvm.memcpy.p0.p0.i64(ptr align 8 %18, ptr align 4 %2, i64 12, i1 false)
  %75 = load { i64, i32 }, ptr %18, align 8
  ret { i64, i32 } %75

76:                                               ; preds = %33
  %77 = load ptr, ptr %11, align 8
  %78 = load i32, ptr %12, align 4
  %79 = insertvalue { ptr, i32 } poison, ptr %77, 0
  %80 = insertvalue { ptr, i32 } %79, i32 %78, 1
  resume { ptr, i32 } %80
}