; Function Attrs: mustprogress uwtable
define { i64, i32 } @_ZN10open_spiel9dou_dizhu22GetChainOnlyHandParamsEi(i32 noundef %0) local_unnamed_addr #4 personality ptr @__gxx_personality_v0 {
  %2 = alloca %"class.std::__cxx11::basic_string", align 8
  %3 = alloca %"class.std::allocator", align 1
  %4 = alloca i32, align 4
  %5 = alloca i32, align 4
  %6 = alloca %"class.std::__cxx11::basic_string", align 8
  %7 = alloca i32, align 4
  %8 = tail call noundef i32 @_ZN10open_spiel9dou_dizhu18GetNumCardsPerRankEi(i32 noundef %0)
  call void @llvm.lifetime.start.p0(i64 32, ptr nonnull %2)
  call void @llvm.lifetime.start.p0(i64 1, ptr nonnull %3)
  %9 = icmp ult i32 %8, 4
  br i1 %9, label %switch.lookup, label %10

10:                                               ; preds = %1
  call void @_ZNSaIcEC1Ev(ptr noundef nonnull align 1 dereferenceable(1) %3) #19
  invoke void @_ZNSt7__cxx1112basic_stringIcSt11char_traitsIcESaIcEEC2IS3_EEPKcRKS3_(ptr noundef nonnull align 8 dereferenceable(32) %2, ptr noundef nonnull @.str.27, ptr noundef nonnull align 1 dereferenceable(1) %3)
          to label %11 unwind label %13

11:                                               ; preds = %10
  invoke void @_ZN10open_spiel15SpielFatalErrorERKNSt7__cxx1112basic_stringIcSt11char_traitsIcESaIcEEE(ptr noundef nonnull align 8 dereferenceable(32) %2) #20
          to label %12 unwind label %15

12:                                               ; preds = %11
  unreachable

13:                                               ; preds = %10
  %14 = landingpad { ptr, i32 }
          cleanup
  br label %17

15:                                               ; preds = %11
  %16 = landingpad { ptr, i32 }
          cleanup
  call void @_ZNSt7__cxx1112basic_stringIcSt11char_traitsIcESaIcEED1Ev(ptr noundef nonnull align 8 dereferenceable(32) %2) #19
  br label %17

common.resume:                                    ; preds = %22, %17
  %common.resume.op = phi { ptr, i32 } [ %.pn.i, %17 ], [ %23, %22 ]
  resume { ptr, i32 } %common.resume.op

17:                                               ; preds = %15, %13
  %.pn.i = phi { ptr, i32 } [ %16, %15 ], [ %14, %13 ]
  call void @_ZNSaIcED1Ev(ptr noundef nonnull align 1 dereferenceable(1) %3) #19
  br label %common.resume

switch.lookup:                                    ; preds = %1
  %switch.tableidx = add nsw i32 %8, -1
  %18 = sext i32 %switch.tableidx to i64
  %switch.gep = getelementptr inbounds [3 x i32], ptr @switch.table._ZN10open_spiel9dou_dizhu23ChainOnlyHandToActionIdEN4absl7debian24SpanIKiEE.2, i64 0, i64 %18
  %switch.load = load i32, ptr %switch.gep, align 4
  %19 = sext i32 %switch.tableidx to i64
  %switch.gep39 = getelementptr inbounds [3 x i32], ptr @switch.table._ZN10open_spiel9dou_dizhu23ChainOnlyHandToActionIdEN4absl7debian24SpanIKiEE, i64 0, i64 %19
  %switch.load40 = load i32, ptr %switch.gep39, align 4
  call void @llvm.lifetime.end.p0(i64 32, ptr nonnull %2)
  call void @llvm.lifetime.end.p0(i64 1, ptr nonnull %3)
  store i32 %0, ptr %4, align 4
  store i32 %switch.load, ptr %5, align 4
  %.not = icmp slt i32 %0, %switch.load
  br i1 %.not, label %20, label %24

20:                                               ; preds = %switch.lookup
  store i32 240, ptr %7, align 4
  call void @_ZN10open_spiel8internal11SpielStrCatIJRA144_KcRA2_S2_iS6_RA22_S2_RA8_S2_RA4_S2_RiRA17_S2_SD_EEENSt7__cxx1112basic_stringIcSt11char_traitsIcESaIcEEEDpOT_(ptr dead_on_unwind nonnull writable sret(%"class.std::__cxx11::basic_string") align 8 %6, ptr noundef nonnull align 1 dereferenceable(144) @.str.4, ptr noundef nonnull align 1 dereferenceable(2) @.str.5, ptr noundef nonnull align 4 dereferenceable(4) %7, ptr noundef nonnull align 1 dereferenceable(2) @.str.6, ptr noundef nonnull align 1 dereferenceable(22) @.str.17, ptr noundef nonnull align 1 dereferenceable(8) @.str.18, ptr noundef nonnull align 1 dereferenceable(4) @.str.9, ptr noundef nonnull align 4 dereferenceable(4) %4, ptr noundef nonnull align 1 dereferenceable(17) @.str.19, ptr noundef nonnull align 4 dereferenceable(4) %5)
  invoke void @_ZN10open_spiel15SpielFatalErrorERKNSt7__cxx1112basic_stringIcSt11char_traitsIcESaIcEEE(ptr noundef nonnull align 8 dereferenceable(32) %6) #20
          to label %21 unwind label %22

21:                                               ; preds = %20
  unreachable

22:                                               ; preds = %20
  %23 = landingpad { ptr, i32 }
          cleanup
  call void @_ZNSt7__cxx1112basic_stringIcSt11char_traitsIcESaIcEED1Ev(ptr noundef nonnull align 8 dereferenceable(32) %6) #19
  br label %common.resume

24:                                               ; preds = %switch.lookup
  %25 = sub nsw i32 %0, %switch.load
  br label %26

26:                                               ; preds = %24, %29
  %.038 = phi i32 [ %switch.load40, %24 ], [ %30, %29 ]
  %.02537 = phi i32 [ 0, %24 ], [ %27, %29 ]
  %.not28 = icmp sle i32 %.02537, %25
  %reass.sub = sub i32 %.02537, %.038
  %27 = add i32 %reass.sub, 13
  %28 = icmp slt i32 %25, %27
  %or.cond = and i1 %.not28, %28
  br i1 %or.cond, label %31, label %29

29:                                               ; preds = %26
  %30 = add nuw nsw i32 %.038, 1
  %exitcond.not = icmp eq i32 %30, 16
  br i1 %exitcond.not, label %31, label %26, !llvm.loop !30

31:                                               ; preds = %26, %29
  %.025.lcssa = phi i32 [ %.02537, %26 ], [ %27, %29 ]
  %.0.lcssa = phi i32 [ %.038, %26 ], [ 16, %29 ]
  %32 = sub nsw i32 %25, %.025.lcssa
  %.sroa.2.0.insert.ext = zext nneg i32 %8 to i64
  %.sroa.2.0.insert.shift = shl nuw nsw i64 %.sroa.2.0.insert.ext, 32
  %.sroa.0.0.insert.ext = zext i32 %32 to i64
  %.sroa.0.0.insert.insert = or disjoint i64 %.sroa.2.0.insert.shift, %.sroa.0.0.insert.ext
  %.fca.0.insert = insertvalue { i64, i32 } poison, i64 %.sroa.0.0.insert.insert, 0
  %.fca.1.insert = insertvalue { i64, i32 } %.fca.0.insert, i32 %.0.lcssa, 1
  ret { i64, i32 } %.fca.1.insert
}